; Function Attrs: nounwind uwtable
define i32 @LookInStream_LookRead(ptr noundef %0, ptr noundef writeonly captures(none) %1, ptr noundef %2) local_unnamed_addr #0 {
  %4 = alloca ptr, align 8
  call void @llvm.lifetime.start.p0(i64 8, ptr nonnull %4) #7
  %5 = load i64, ptr %2, align 8, !tbaa !3
  %6 = icmp eq i64 %5, 0
  br i1 %6, label %17, label %7

7:                                                ; preds = %3
  %8 = load ptr, ptr %0, align 8, !tbaa !14
  %9 = call i32 %8(ptr noundef nonnull %0, ptr noundef nonnull %4, ptr noundef nonnull %2) #7
  %.not = icmp eq i32 %9, 0
  br i1 %.not, label %10, label %17

10:                                               ; preds = %7
  %11 = load ptr, ptr %4, align 8, !tbaa !15
  %12 = load i64, ptr %2, align 8, !tbaa !3
  call void @llvm.memcpy.p0.p0.i64(ptr align 1 %1, ptr align 1 %11, i64 %12, i1 false)
  %13 = getelementptr inbounds nuw i8, ptr %0, i64 8
  %14 = load ptr, ptr %13, align 8, !tbaa !16
  %15 = load i64, ptr %2, align 8, !tbaa !3
  %16 = call i32 %14(ptr noundef nonnull %0, i64 noundef %15) #7
  br label %17

17:                                               ; preds = %3, %7, %10
  %.0 = phi i32 [ %16, %10 ], [ %9, %7 ], [ 0, %3 ]
  call void @llvm.lifetime.end.p0(i64 8, ptr nonnull %4) #7
  ret i32 %.0
}